target datalayout = "e-m:e-p270:32:32-p271:32:32-p272:64:64-i64:64-i128:128-f80:128-n8:16:32:64-S128"
target triple = "x86_64-pc-linux-gnu"

%"class.std::__cxx11::basic_string" = type { %"struct.std::__cxx11::basic_string<char>::_Alloc_hider", i64, %union.anon }
%"struct.std::__cxx11::basic_string<char>::_Alloc_hider" = type { ptr }
%union.anon = type { i64, [8 x i8] }
%"class.std::vector.3" = type { %"struct.std::_Vector_base.4" }
%"struct.std::_Vector_base.4" = type { %"struct.std::_Vector_base<int, std::allocator<int>>::_Vector_impl" }
%"struct.std::_Vector_base<int, std::allocator<int>>::_Vector_impl" = type { %"struct.std::_Vector_base<int, std::allocator<int>>::_Vector_impl_data" }
%"struct.std::_Vector_base<int, std::allocator<int>>::_Vector_impl_data" = type { ptr, ptr, ptr }
%class.colvardeps = type { ptr, %"class.std::__cxx11::basic_string", i32, %"class.std::vector.54", %"class.std::vector.59", %"class.std::vector.59" }
%"class.std::vector.54" = type { %"struct.std::_Vector_base.55" }
%"struct.std::_Vector_base.55" = type { %"struct.std::_Vector_base<colvardeps::feature_state, std::allocator<colvardeps::feature_state>>::_Vector_impl" }
%"struct.std::_Vector_base<colvardeps::feature_state, std::allocator<colvardeps::feature_state>>::_Vector_impl" = type { %"struct.std::_Vector_base<colvardeps::feature_state, std::allocator<colvardeps::feature_state>>::_Vector_impl_data" }
%"struct.std::_Vector_base<colvardeps::feature_state, std::allocator<colvardeps::feature_state>>::_Vector_impl_data" = type { ptr, ptr, ptr }
%"class.std::vector.59" = type { %"struct.std::_Vector_base.60" }
%"struct.std::_Vector_base.60" = type { %"struct.std::_Vector_base<colvardeps *, std::allocator<colvardeps *>>::_Vector_impl" }
%"struct.std::_Vector_base<colvardeps *, std::allocator<colvardeps *>>::_Vector_impl" = type { %"struct.std::_Vector_base<colvardeps *, std::allocator<colvardeps *>>::_Vector_impl_data" }
%"struct.std::_Vector_base<colvardeps *, std::allocator<colvardeps *>>::_Vector_impl_data" = type { ptr, ptr, ptr }
%"class.colvarmodule::rvector" = type { double, double, double }
%"class.colvarmodule::atom_group" = type { %class.colvarparse, %class.colvardeps, %"class.std::__cxx11::basic_string", %"class.std::__cxx11::basic_string", %"class.std::vector.64", %"class.std::vector.3", %"class.std::vector.3", %"class.std::vector.3", %"class.colvarmodule::rvector", i32, i8, %"class.colvarmodule::rotation", ptr, i8, %"class.std::vector.18", %"class.colvarmodule::rvector", ptr, double, double, i8, %"class.colvarmodule::rvector", %"class.colvarmodule::rvector", %"class.colvarmodule::rvector", %"class.colvarmodule::rvector", %"class.colvarmodule::rvector", %"class.std::vector.18" }
%class.colvarparse = type { %class.colvarparams, %"class.std::__cxx11::basic_string", %"class.std::__cxx11::basic_string", %"class.std::__cxx11::list", %"class.std::map.44", %"class.std::__cxx11::list.49", %"class.std::__cxx11::list.49", %"class.std::__cxx11::basic_string" }
%class.colvarparams = type { ptr, %"class.std::map.31", %"class.std::map.36" }
%"class.std::map.31" = type { %"class.std::_Rb_tree.32" }
%"class.std::_Rb_tree.32" = type { %"struct.std::_Rb_tree<std::__cxx11::basic_string<char>, std::pair<const std::__cxx11::basic_string<char>, const void *>, std::_Select1st<std::pair<const std::__cxx11::basic_string<char>, const void *>>, std::less<std::__cxx11::basic_string<char>>>::_Rb_tree_impl" }
%"struct.std::_Rb_tree<std::__cxx11::basic_string<char>, std::pair<const std::__cxx11::basic_string<char>, const void *>, std::_Select1st<std::pair<const std::__cxx11::basic_string<char>, const void *>>, std::less<std::__cxx11::basic_string<char>>>::_Rb_tree_impl" = type { %"struct.std::_Rb_tree_key_compare", %"struct.std::_Rb_tree_header" }
%"struct.std::_Rb_tree_key_compare" = type { %"struct.std::less" }
%"struct.std::less" = type { i8 }
%"struct.std::_Rb_tree_header" = type { %"struct.std::_Rb_tree_node_base", i64 }
%"struct.std::_Rb_tree_node_base" = type { i32, ptr, ptr, ptr }
%"class.std::map.36" = type { %"class.std::_Rb_tree.37" }
%"class.std::_Rb_tree.37" = type { %"struct.std::_Rb_tree<std::__cxx11::basic_string<char>, std::pair<const std::__cxx11::basic_string<char>, const colvarvalue *>, std::_Select1st<std::pair<const std::__cxx11::basic_string<char>, const colvarvalue *>>, std::less<std::__cxx11::basic_string<char>>>::_Rb_tree_impl" }
%"struct.std::_Rb_tree<std::__cxx11::basic_string<char>, std::pair<const std::__cxx11::basic_string<char>, const colvarvalue *>, std::_Select1st<std::pair<const std::__cxx11::basic_string<char>, const colvarvalue *>>, std::less<std::__cxx11::basic_string<char>>>::_Rb_tree_impl" = type { %"struct.std::_Rb_tree_key_compare", %"struct.std::_Rb_tree_header" }
%"class.std::__cxx11::list" = type { %"class.std::__cxx11::_List_base" }
%"class.std::__cxx11::_List_base" = type { %"struct.std::__cxx11::_List_base<std::__cxx11::basic_string<char>, std::allocator<std::__cxx11::basic_string<char>>>::_List_impl" }
%"struct.std::__cxx11::_List_base<std::__cxx11::basic_string<char>, std::allocator<std::__cxx11::basic_string<char>>>::_List_impl" = type { %"struct.std::__detail::_List_node_header" }
%"struct.std::__detail::_List_node_header" = type { %"struct.std::__detail::_List_node_base", i64 }
%"struct.std::__detail::_List_node_base" = type { ptr, ptr }
%"class.std::map.44" = type { %"class.std::_Rb_tree.45" }
%"class.std::_Rb_tree.45" = type { %"struct.std::_Rb_tree<std::__cxx11::basic_string<char>, std::pair<const std::__cxx11::basic_string<char>, colvarparse::key_set_mode>, std::_Select1st<std::pair<const std::__cxx11::basic_string<char>, colvarparse::key_set_mode>>, std::less<std::__cxx11::basic_string<char>>>::_Rb_tree_impl" }
%"struct.std::_Rb_tree<std::__cxx11::basic_string<char>, std::pair<const std::__cxx11::basic_string<char>, colvarparse::key_set_mode>, std::_Select1st<std::pair<const std::__cxx11::basic_string<char>, colvarparse::key_set_mode>>, std::less<std::__cxx11::basic_string<char>>>::_Rb_tree_impl" = type { %"struct.std::_Rb_tree_key_compare", %"struct.std::_Rb_tree_header" }
%"class.std::__cxx11::list.49" = type { %"class.std::__cxx11::_List_base.50" }
%"class.std::__cxx11::_List_base.50" = type { %"struct.std::__cxx11::_List_base<unsigned long, std::allocator<unsigned long>>::_List_impl" }
%"struct.std::__cxx11::_List_base<unsigned long, std::allocator<unsigned long>>::_List_impl" = type { %"struct.std::__detail::_List_node_header" }
%"class.std::vector.64" = type { %"struct.std::_Vector_base.65" }
%"struct.std::_Vector_base.65" = type { %"struct.std::_Vector_base<colvarmodule::atom, std::allocator<colvarmodule::atom>>::_Vector_impl" }
%"struct.std::_Vector_base<colvarmodule::atom, std::allocator<colvarmodule::atom>>::_Vector_impl" = type { %"struct.std::_Vector_base<colvarmodule::atom, std::allocator<colvarmodule::atom>>::_Vector_impl_data" }
%"struct.std::_Vector_base<colvarmodule::atom, std::allocator<colvarmodule::atom>>::_Vector_impl_data" = type { ptr, ptr, ptr }
%"class.colvarmodule::rotation" = type { %"class.colvarmodule::rmatrix", [4 x [4 x double]], [4 x double], [4 x [4 x double]], [4 x [4 x double]], i8, %"class.colvarmodule::quaternion", %"class.colvarmodule::quaternion", ptr }
%"class.colvarmodule::rmatrix" = type { double, double, double, double, double, double, double, double, double }
%"class.colvarmodule::quaternion" = type { double, double, double, double }
%"class.std::vector.18" = type { %"struct.std::_Vector_base.19" }
%"struct.std::_Vector_base.19" = type { %"struct.std::_Vector_base<colvarmodule::rvector, std::allocator<colvarmodule::rvector>>::_Vector_impl" }
%"struct.std::_Vector_base<colvarmodule::rvector, std::allocator<colvarmodule::rvector>>::_Vector_impl" = type { %"struct.std::_Vector_base<colvarmodule::rvector, std::allocator<colvarmodule::rvector>>::_Vector_impl_data" }
%"struct.std::_Vector_base<colvarmodule::rvector, std::allocator<colvarmodule::rvector>>::_Vector_impl_data" = type { ptr, ptr, ptr }
%"class.colvarmodule::atom" = type { i32, i32, double, double, %"class.colvarmodule::rvector", %"class.colvarmodule::rvector", %"class.colvarmodule::rvector", %"class.colvarmodule::rvector" }

@.str.11 = private unnamed_addr constant [8 x i8] c"unnamed\00", align 1
@.str.12 = private unnamed_addr constant [12 x i8] c"atom group \00", align 1
@_ZN12colvarmodule4atomD1Ev = unnamed_addr alias void (ptr), ptr @_ZN12colvarmodule4atomD2Ev

; Function Attrs: mustprogress nounwind uwtable
define linkonce_odr void @_ZSt8_DestroyIN12colvarmodule4atomEEvPT_(ptr noundef %0) #1 comdat {
  %2 = alloca ptr, align 8
  store ptr %0, ptr %2, align 8
  %3 = load ptr, ptr %2, align 8
  call void @_ZN12colvarmodule4atomD1Ev(ptr noundef nonnull align 8 dereferenceable(120) %3) #15
  ret void
}

; Function Attrs: mustprogress uwtable
define linkonce_odr void @_ZNSt12_Destroy_auxILb0EE9__destroyIPN12colvarmodule4atomEEEvT_S5_(ptr noundef %0, ptr noundef %1) #2 comdat align 2 {
  %3 = alloca ptr, align 8
  %4 = alloca ptr, align 8
  store ptr %0, ptr %3, align 8
  store ptr %1, ptr %4, align 8
  br label %5

5:                                                ; preds = %11, %2
  %6 = load ptr, ptr %3, align 8
  %7 = load ptr, ptr %4, align 8
  %8 = icmp ne ptr %6, %7
  br i1 %8, label %9, label %14

9:                                                ; preds = %5
  %10 = load ptr, ptr %3, align 8
  call void @_ZSt8_DestroyIN12colvarmodule4atomEEvPT_(ptr noundef %10)
  br label %11

11:                                               ; preds = %9
  %12 = load ptr, ptr %3, align 8
  %13 = getelementptr inbounds %"class.colvarmodule::atom", ptr %12, i32 1
  store ptr %13, ptr %3, align 8
  br label %5, !llvm.loop !9

14:                                               ; preds = %5
  ret void
}

; Function Attrs: mustprogress uwtable
define linkonce_odr void @_ZSt8_DestroyIPN12colvarmodule4atomEEvT_S3_(ptr noundef %0, ptr noundef %1) #2 comdat {
  %3 = alloca ptr, align 8
  %4 = alloca ptr, align 8
  store ptr %0, ptr %3, align 8
  store ptr %1, ptr %4, align 8
  %5 = load ptr, ptr %3, align 8
  %6 = load ptr, ptr %4, align 8
  call void @_ZNSt12_Destroy_auxILb0EE9__destroyIPN12colvarmodule4atomEEEvT_S5_(ptr noundef %5, ptr noundef %6)
  ret void
}

; Function Attrs: noreturn nounwind uwtable
define linkonce_odr hidden void @__clang_call_terminate(ptr noundef %0) #6 comdat {
  %2 = call ptr @__cxa_begin_catch(ptr %0) #15
  call void @_ZSt9terminatev() #18
  unreachable
}

; Function Attrs: mustprogress uwtable
define linkonce_odr void @_ZSt8_DestroyIPN12colvarmodule4atomES1_EvT_S3_RSaIT0_E(ptr noundef %0, ptr noundef %1, ptr noundef nonnull align 1 dereferenceable(1) %2) #2 comdat {
  %4 = alloca ptr, align 8
  %5 = alloca ptr, align 8
  %6 = alloca ptr, align 8
  store ptr %0, ptr %4, align 8
  store ptr %1, ptr %5, align 8
  store ptr %2, ptr %6, align 8
  %7 = load ptr, ptr %4, align 8
  %8 = load ptr, ptr %5, align 8
  call void @_ZSt8_DestroyIPN12colvarmodule4atomEEvT_S3_(ptr noundef %7, ptr noundef %8)
  ret void
}

; Function Attrs: mustprogress nounwind uwtable
define linkonce_odr noundef nonnull align 1 dereferenceable(1) ptr @_ZNSt12_Vector_baseIN12colvarmodule4atomESaIS1_EE19_M_get_Tp_allocatorEv(ptr noundef nonnull align 8 dereferenceable(24) %0) #1 comdat align 2 {
  %2 = alloca ptr, align 8
  store ptr %0, ptr %2, align 8
  %3 = load ptr, ptr %2, align 8
  %4 = getelementptr inbounds %"struct.std::_Vector_base.65", ptr %3, i32 0, i32 0
  ret ptr %4
}

; Function Attrs: mustprogress nounwind uwtable
define linkonce_odr void @_ZN12colvarmodule7rvector3setEd(ptr noundef nonnull align 8 dereferenceable(24) %0, double noundef %1) #1 comdat align 2 {
  %3 = alloca ptr, align 8
  %4 = alloca double, align 8
  store ptr %0, ptr %3, align 8
  store double %1, ptr %4, align 8
  %5 = load ptr, ptr %3, align 8
  %6 = load double, ptr %4, align 8
  %7 = getelementptr inbounds %"class.colvarmodule::rvector", ptr %5, i32 0, i32 2
  store double %6, ptr %7, align 8
  %8 = getelementptr inbounds %"class.colvarmodule::rvector", ptr %5, i32 0, i32 1
  store double %6, ptr %8, align 8
  %9 = getelementptr inbounds %"class.colvarmodule::rvector", ptr %5, i32 0, i32 0
  store double %6, ptr %9, align 8
  ret void
}

; Function Attrs: mustprogress nounwind uwtable
define linkonce_odr void @_ZNSt6vectorIN12colvarmodule4atomESaIS1_EE15_M_erase_at_endEPS1_(ptr noundef nonnull align 8 dereferenceable(24) %0, ptr noundef %1) #1 comdat align 2 personality ptr @__gxx_personality_v0 {
  %3 = alloca ptr, align 8
  %4 = alloca ptr, align 8
  %5 = alloca i64, align 8
  store ptr %0, ptr %3, align 8
  store ptr %1, ptr %4, align 8
  %6 = load ptr, ptr %3, align 8
  %7 = getelementptr inbounds %"struct.std::_Vector_base.65", ptr %6, i32 0, i32 0
  %8 = getelementptr inbounds %"struct.std::_Vector_base<colvarmodule::atom, std::allocator<colvarmodule::atom>>::_Vector_impl_data", ptr %7, i32 0, i32 1
  %9 = load ptr, ptr %8, align 8
  %10 = load ptr, ptr %4, align 8
  %11 = ptrtoint ptr %9 to i64
  %12 = ptrtoint ptr %10 to i64
  %13 = sub i64 %11, %12
  %14 = sdiv exact i64 %13, 120
  store i64 %14, ptr %5, align 8
  %15 = load i64, ptr %5, align 8
  %16 = icmp ne i64 %15, 0
  br i1 %16, label %17, label %27

17:                                               ; preds = %2
  %18 = load ptr, ptr %4, align 8
  %19 = getelementptr inbounds %"struct.std::_Vector_base.65", ptr %6, i32 0, i32 0
  %20 = getelementptr inbounds %"struct.std::_Vector_base<colvarmodule::atom, std::allocator<colvarmodule::atom>>::_Vector_impl_data", ptr %19, i32 0, i32 1
  %21 = load ptr, ptr %20, align 8
  %22 = call noundef nonnull align 1 dereferenceable(1) ptr @_ZNSt12_Vector_baseIN12colvarmodule4atomESaIS1_EE19_M_get_Tp_allocatorEv(ptr noundef nonnull align 8 dereferenceable(24) %6) #15
  invoke void @_ZSt8_DestroyIPN12colvarmodule4atomES1_EvT_S3_RSaIT0_E(ptr noundef %18, ptr noundef %21, ptr noundef nonnull align 1 dereferenceable(1) %22)
          to label %23 unwind label %28

23:                                               ; preds = %17
  %24 = load ptr, ptr %4, align 8
  %25 = getelementptr inbounds %"struct.std::_Vector_base.65", ptr %6, i32 0, i32 0
  %26 = getelementptr inbounds %"struct.std::_Vector_base<colvarmodule::atom, std::allocator<colvarmodule::atom>>::_Vector_impl_data", ptr %25, i32 0, i32 1
  store ptr %24, ptr %26, align 8
  br label %27

27:                                               ; preds = %23, %2
  ret void

28:                                               ; preds = %17
  %29 = landingpad { ptr, i32 }
          catch ptr null
  %30 = extractvalue { ptr, i32 } %29, 0
  call void @__clang_call_terminate(ptr %30) #18
  unreachable
}

; Function Attrs: mustprogress uwtable
define linkonce_odr void @_ZN12colvarmodule7rvector5resetEv(ptr noundef nonnull align 8 dereferenceable(24) %0) #2 comdat align 2 {
  %2 = alloca ptr, align 8
  store ptr %0, ptr %2, align 8
  %3 = load ptr, ptr %2, align 8
  call void @_ZN12colvarmodule7rvector3setEd(ptr noundef nonnull align 8 dereferenceable(24) %3, double noundef 0.000000e+00)
  ret void
}

; Function Attrs: mustprogress nounwind uwtable
define linkonce_odr void @_ZNSt6vectorIN12colvarmodule4atomESaIS1_EE5clearEv(ptr noundef nonnull align 8 dereferenceable(24) %0) #1 comdat align 2 {
  %2 = alloca ptr, align 8
  store ptr %0, ptr %2, align 8
  %3 = load ptr, ptr %2, align 8
  %4 = getelementptr inbounds %"struct.std::_Vector_base.65", ptr %3, i32 0, i32 0
  %5 = getelementptr inbounds %"struct.std::_Vector_base<colvarmodule::atom, std::allocator<colvarmodule::atom>>::_Vector_impl_data", ptr %4, i32 0, i32 0
  %6 = load ptr, ptr %5, align 8
  call void @_ZNSt6vectorIN12colvarmodule4atomESaIS1_EE15_M_erase_at_endEPS1_(ptr noundef nonnull align 8 dereferenceable(24) %3, ptr noundef %6) #15
  ret void
}

; Function Attrs: mustprogress uwtable
define noundef i32 @_ZN12colvarmodule10atom_group4initEv(ptr noundef nonnull align 8 dereferenceable(1440) %0) #2 align 2 {
  %2 = alloca ptr, align 8
  %3 = alloca %"class.std::__cxx11::basic_string", align 8
  store ptr %0, ptr %2, align 8
  %4 = load ptr, ptr %2, align 8
  %5 = getelementptr inbounds %"class.colvarmodule::atom_group", ptr %4, i32 0, i32 3
  %6 = call noundef i64 @_ZNKSt7__cxx1112basic_stringIcSt11char_traitsIcESaIcEE4sizeEv(ptr noundef nonnull align 8 dereferenceable(32) %5) #15
  %7 = icmp ne i64 %6, 0
  br i1 %7, label %11, label %8

8:                                                ; preds = %1
  %9 = getelementptr inbounds %"class.colvarmodule::atom_group", ptr %4, i32 0, i32 3
  %10 = call noundef nonnull align 8 dereferenceable(32) ptr @_ZNSt7__cxx1112basic_stringIcSt11char_traitsIcESaIcEEaSEPKc(ptr noundef nonnull align 8 dereferenceable(32) %9, ptr noundef @.str.11)
  br label %11

11:                                               ; preds = %8, %1
  %12 = getelementptr inbounds %"class.colvarmodule::atom_group", ptr %4, i32 0, i32 3
  call void @_ZStplIcSt11char_traitsIcESaIcEENSt7__cxx1112basic_stringIT_T0_T1_EEPKS5_RKS8_(ptr dead_on_unwind writable sret(%"class.std::__cxx11::basic_string") align 8 %3, ptr noundef @.str.12, ptr noundef nonnull align 8 dereferenceable(32) %12)
  %13 = getelementptr inbounds i8, ptr %4, i64 320
  %14 = getelementptr inbounds %class.colvardeps, ptr %13, i32 0, i32 1
  %15 = call noundef nonnull align 8 dereferenceable(32) ptr @_ZNSt7__cxx1112basic_stringIcSt11char_traitsIcESaIcEEaSEOS4_(ptr noundef nonnull align 8 dereferenceable(32) %14, ptr noundef nonnull align 8 dereferenceable(32) %3) #15
  call void @_ZNSt7__cxx1112basic_stringIcSt11char_traitsIcESaIcEED1Ev(ptr noundef nonnull align 8 dereferenceable(32) %3) #15
  %16 = getelementptr inbounds %"class.colvarmodule::atom_group", ptr %4, i32 0, i32 4
  call void @_ZNSt6vectorIN12colvarmodule4atomESaIS1_EE5clearEv(ptr noundef nonnull align 8 dereferenceable(24) %16) #15
  %17 = call noundef i32 @_ZN12colvarmodule10atom_group17init_dependenciesEv(ptr noundef nonnull align 8 dereferenceable(1440) %4)
  %18 = getelementptr inbounds %"class.colvarmodule::atom_group", ptr %4, i32 0, i32 9
  store i32 -1, ptr %18, align 8
  %19 = getelementptr inbounds %"class.colvarmodule::atom_group", ptr %4, i32 0, i32 10
  store i8 0, ptr %19, align 4
  %20 = getelementptr inbounds %"class.colvarmodule::atom_group", ptr %4, i32 0, i32 13
  store i8 0, ptr %20, align 8
  %21 = getelementptr inbounds %"class.colvarmodule::atom_group", ptr %4, i32 0, i32 16
  store ptr null, ptr %21, align 8
  %22 = getelementptr inbounds %"class.colvarmodule::atom_group", ptr %4, i32 0, i32 12
  store ptr null, ptr %22, align 8
  %23 = getelementptr inbounds %"class.colvarmodule::atom_group", ptr %4, i32 0, i32 19
  store i8 0, ptr %23, align 8
  %24 = getelementptr inbounds %"class.colvarmodule::atom_group", ptr %4, i32 0, i32 17
  store double 0.000000e+00, ptr %24, align 8
  %25 = getelementptr inbounds %"class.colvarmodule::atom_group", ptr %4, i32 0, i32 18
  store double 0.000000e+00, ptr %25, align 8
  %26 = getelementptr inbounds %"class.colvarmodule::atom_group", ptr %4, i32 0, i32 20
  call void @_ZN12colvarmodule7rvector5resetEv(ptr noundef nonnull align 8 dereferenceable(24) %26)
  %27 = getelementptr inbounds %"class.colvarmodule::atom_group", ptr %4, i32 0, i32 22
  call void @_ZN12colvarmodule7rvector5resetEv(ptr noundef nonnull align 8 dereferenceable(24) %27)
  ret i32 0
}