; Function Attrs: mustprogress uwtable
define noundef i32 @_ZN12colvarmodule10atom_group4initEv(ptr noundef nonnull align 8 dereferenceable(1440) %0) local_unnamed_addr #2 align 2 personality ptr @__gxx_personality_v0 {
  %2 = alloca %"class.std::__cxx11::basic_string", align 8
  %3 = getelementptr inbounds i8, ptr %0, i64 472
  %4 = tail call noundef i64 @_ZNKSt7__cxx1112basic_stringIcSt11char_traitsIcESaIcEE4sizeEv(ptr noundef nonnull align 8 dereferenceable(32) %3) #25
  %.not = icmp eq i64 %4, 0
  br i1 %.not, label %5, label %7

5:                                                ; preds = %1
  %6 = tail call noundef nonnull align 8 dereferenceable(32) ptr @_ZNSt7__cxx1112basic_stringIcSt11char_traitsIcESaIcEEaSEPKc(ptr noundef nonnull align 8 dereferenceable(32) %3, ptr noundef nonnull @.str.11)
  br label %7

7:                                                ; preds = %5, %1
  call void @_ZStplIcSt11char_traitsIcESaIcEENSt7__cxx1112basic_stringIT_T0_T1_EEPKS5_RKS8_(ptr dead_on_unwind nonnull writable sret(%"class.std::__cxx11::basic_string") align 8 %2, ptr noundef nonnull @.str.12, ptr noundef nonnull align 8 dereferenceable(32) %3)
  %8 = getelementptr inbounds i8, ptr %0, i64 328
  %9 = call noundef nonnull align 8 dereferenceable(32) ptr @_ZNSt7__cxx1112basic_stringIcSt11char_traitsIcESaIcEEaSEOS4_(ptr noundef nonnull align 8 dereferenceable(32) %8, ptr noundef nonnull align 8 dereferenceable(32) %2) #25
  call void @_ZNSt7__cxx1112basic_stringIcSt11char_traitsIcESaIcEED1Ev(ptr noundef nonnull align 8 dereferenceable(32) %2) #25
  %10 = getelementptr inbounds i8, ptr %0, i64 504
  %11 = load ptr, ptr %10, align 8
  %12 = getelementptr inbounds i8, ptr %0, i64 512
  %13 = load ptr, ptr %12, align 8
  %.not.i.i = icmp eq ptr %13, %11
  br i1 %.not.i.i, label %_ZNSt6vectorIN12colvarmodule4atomESaIS1_EE5clearEv.exit, label %.lr.ph.i.i.i.i.i

.lr.ph.i.i.i.i.i:                                 ; preds = %7, %.lr.ph.i.i.i.i.i
  %.05.i.i.i.i.i = phi ptr [ %14, %.lr.ph.i.i.i.i.i ], [ %11, %7 ]
  call void @_ZN12colvarmodule4atomD1Ev(ptr noundef nonnull align 8 dereferenceable(120) %.05.i.i.i.i.i) #25
  %14 = getelementptr inbounds i8, ptr %.05.i.i.i.i.i, i64 120
  %.not.i.i.i.i.i = icmp eq ptr %14, %13
  br i1 %.not.i.i.i.i.i, label %_ZSt8_DestroyIPN12colvarmodule4atomES1_EvT_S3_RSaIT0_E.exit.i.i, label %.lr.ph.i.i.i.i.i, !llvm.loop !15

_ZSt8_DestroyIPN12colvarmodule4atomES1_EvT_S3_RSaIT0_E.exit.i.i: ; preds = %.lr.ph.i.i.i.i.i
  store ptr %11, ptr %12, align 8
  br label %_ZNSt6vectorIN12colvarmodule4atomESaIS1_EE5clearEv.exit

_ZNSt6vectorIN12colvarmodule4atomESaIS1_EE5clearEv.exit: ; preds = %7, %_ZSt8_DestroyIPN12colvarmodule4atomES1_EvT_S3_RSaIT0_E.exit.i.i
  %15 = call noundef i32 @_ZN12colvarmodule10atom_group17init_dependenciesEv(ptr noundef nonnull align 8 dereferenceable(1440) %0)
  %16 = getelementptr inbounds i8, ptr %0, i64 624
  store i32 -1, ptr %16, align 8
  %17 = getelementptr inbounds i8, ptr %0, i64 628
  store i8 0, ptr %17, align 4
  %18 = getelementptr inbounds i8, ptr %0, i64 1208
  store i8 0, ptr %18, align 8
  %19 = getelementptr inbounds i8, ptr %0, i64 1264
  %20 = getelementptr inbounds i8, ptr %0, i64 1200
  store ptr null, ptr %20, align 8
  %21 = getelementptr inbounds i8, ptr %0, i64 1296
  call void @llvm.memset.p0.i64(ptr noundef nonnull align 8 dereferenceable(24) %21, i8 0, i64 24, i1 false)
  %22 = getelementptr inbounds i8, ptr %0, i64 1344
  call void @llvm.memset.p0.i64(ptr noundef nonnull align 8 dereferenceable(24) %22, i8 0, i64 24, i1 false)
  call void @llvm.memset.p0.i64(ptr noundef nonnull align 8 dereferenceable(25) %19, i8 0, i64 25, i1 false)
  ret i32 0
}